target datalayout = "e-m:e-p270:32:32-p271:32:32-p272:64:64-i64:64-i128:128-f80:128-n8:16:32:64-S128"
target triple = "x86_64-pc-linux-gnu"

@.str.11 = private unnamed_addr constant [65 x i8] c"Possible integer overflow in memory allocation (%zu * %zu + %zu)\00", align 1

; Function Attrs: nounwind uwtable
define ptr @_safe_erealloc(ptr noundef %0, i64 noundef %1, i64 noundef %2, i64 noundef %3) #0 {
  %5 = alloca i64, align 8
  %6 = alloca i64, align 8
  %7 = alloca i64, align 8
  %8 = alloca i64, align 8
  %9 = alloca ptr, align 8
  %10 = alloca i64, align 8
  %11 = alloca i64, align 8
  %12 = alloca i64, align 8
  %13 = alloca i64, align 8
  %14 = alloca i64, align 8
  %15 = alloca i8, align 1
  %16 = alloca i64, align 8
  %17 = alloca ptr, align 8
  %18 = alloca i64, align 8
  %19 = alloca i64, align 8
  %20 = alloca i64, align 8
  store ptr %0, ptr %17, align 8
  store i64 %1, ptr %18, align 8
  store i64 %2, ptr %19, align 8
  store i64 %3, ptr %20, align 8
  %21 = load ptr, ptr %17, align 8
  %22 = load i64, ptr %18, align 8
  %23 = load i64, ptr %19, align 8
  %24 = load i64, ptr %20, align 8
  store i64 %22, ptr %12, align 8
  store i64 %23, ptr %13, align 8
  store i64 %24, ptr %14, align 8
  %25 = load i64, ptr %12, align 8
  %26 = load i64, ptr %13, align 8
  %27 = load i64, ptr %14, align 8
  store i64 %25, ptr %6, align 8
  store i64 %26, ptr %7, align 8
  store i64 %27, ptr %8, align 8
  store ptr %15, ptr %9, align 8
  %28 = load i64, ptr %6, align 8
  store i64 %28, ptr %10, align 8
  store i64 0, ptr %11, align 8
  %29 = load i64, ptr %8, align 8
  %30 = icmp eq i64 %29, 0
  %31 = zext i1 %30 to i32
  %32 = call i1 @llvm.is.constant.i32(i32 %31)
  br i1 %32, label %33, label %36

33:                                               ; preds = %4
  %34 = load i64, ptr %8, align 8
  %35 = icmp eq i64 %34, 0
  br i1 %35, label %37, label %43

36:                                               ; preds = %4
  br label %43

37:                                               ; preds = %33
  %38 = load i64, ptr %10, align 8
  %39 = load i64, ptr %7, align 8
  %40 = call { i64, i64 } asm "mulq $3\0A\09adc $$0,$1", "=&{ax},=&{dx},%0,rm,~{dirflag},~{fpsr},~{flags}"(i64 %38, i64 %39) #24, !srcloc !4
  %41 = extractvalue { i64, i64 } %40, 0
  %42 = extractvalue { i64, i64 } %40, 1
  store i64 %41, ptr %10, align 8
  store i64 %42, ptr %11, align 8
  br label %50

43:                                               ; preds = %36, %33
  %44 = load i64, ptr %10, align 8
  %45 = load i64, ptr %7, align 8
  %46 = load i64, ptr %8, align 8
  %47 = call { i64, i64 } asm "mulq $3\0A\09add $4,$0\0A\09adc $$0,$1", "=&{ax},=&{dx},%0,rm,rm,~{dirflag},~{fpsr},~{flags}"(i64 %44, i64 %45, i64 %46) #24, !srcloc !5
  %48 = extractvalue { i64, i64 } %47, 0
  %49 = extractvalue { i64, i64 } %47, 1
  store i64 %48, ptr %10, align 8
  store i64 %49, ptr %11, align 8
  br label %50

50:                                               ; preds = %43, %37
  %51 = load i64, ptr %11, align 8
  %52 = icmp ne i64 %51, 0
  br i1 %52, label %53, label %55

53:                                               ; preds = %50
  %54 = load ptr, ptr %9, align 8
  store i8 1, ptr %54, align 1
  store i64 0, ptr %5, align 8
  br label %58

55:                                               ; preds = %50
  %56 = load ptr, ptr %9, align 8
  store i8 0, ptr %56, align 1
  %57 = load i64, ptr %10, align 8
  store i64 %57, ptr %5, align 8
  br label %58

58:                                               ; preds = %55, %53
  %59 = load i64, ptr %5, align 8
  store i64 %59, ptr %16, align 8
  %60 = load i8, ptr %15, align 1
  %61 = trunc i8 %60 to i1
  br i1 %61, label %62, label %66

62:                                               ; preds = %58
  %63 = load i64, ptr %12, align 8
  %64 = load i64, ptr %13, align 8
  %65 = load i64, ptr %14, align 8
  call void (i32, ptr, ...) @zend_error_noreturn(i32 noundef 1, ptr noundef @.str.11, i64 noundef %63, i64 noundef %64, i64 noundef %65) #21
  unreachable

66:                                               ; preds = %58
  %67 = load i64, ptr %16, align 8
  %68 = call ptr @_erealloc(ptr noundef %21, i64 noundef %67) #23
  ret ptr %68
}