; Function Attrs: nounwind uwtable
define ptr @_safe_erealloc(ptr noundef %0, i64 noundef %1, i64 noundef %2, i64 noundef %3) local_unnamed_addr #0 {
  %5 = tail call { i64, i64 } asm "mulq $3\0A\09add $4,$0\0A\09adc $$0,$1", "=&{ax},=&{dx},%0,rm,rm,~{dirflag},~{fpsr},~{flags}"(i64 %1, i64 %2, i64 %3) #41, !srcloc !5
  %.025 = extractvalue { i64, i64 } %5, 1
  %.not.not = icmp eq i64 %.025, 0
  br i1 %.not.not, label %7, label %6

6:                                                ; preds = %4
  tail call void (i32, ptr, ...) @zend_error_noreturn(i32 noundef 1, ptr noundef nonnull @.str.11, i64 noundef %1, i64 noundef %2, i64 noundef %3) #38
  unreachable

7:                                                ; preds = %4
  %.024 = extractvalue { i64, i64 } %5, 0
  %8 = tail call ptr @_erealloc(ptr noundef %0, i64 noundef %.024) #40
  ret ptr %8
}